target datalayout = "e-m:e-p270:32:32-p271:32:32-p272:64:64-i64:64-i128:128-f80:128-n8:16:32:64-S128"
target triple = "x86_64-unknown-linux-gnu"

%struct.Object = type { ptr, ptr, ptr, i32, ptr }
%struct.ResettableState = type { i32, i8, i8 }
%struct.DeviceState = type { %struct.Object, ptr, ptr, i8, i8, i64, ptr, i32, i8, ptr, %struct.NamedGPIOListHead, %struct.NamedClockListHead, %struct.BusStateHead, i32, i32, i32, %struct.ResettableState, ptr, %struct.MemReentrancyGuard }
%struct.NamedGPIOListHead = type { ptr }
%struct.NamedClockListHead = type { ptr }
%struct.BusStateHead = type { ptr }
%struct.MemReentrancyGuard = type { i8 }
%struct.IDEDevice = type { %struct.DeviceState, i32, %struct.BlockConf, i32, ptr, ptr, ptr, i64, i16 }
%struct.BlockConf = type { ptr, i32, i32, i32, i32, i32, i32, i32, i32, i32, i32, i32, i32, i32, i32, i8, i32, i32, i32, i32 }

@.str.8 = private unnamed_addr constant [104 x i8] c"/home/dtcxzyw/WorkSpace/Projects/compilers/llvm-opt-benchmark/bench/qemu/qemu/include/hw/ide/internal.h\00", align 1
@.str.9 = private unnamed_addr constant [11 x i8] c"ide-device\00", align 1
@.str.17 = private unnamed_addr constant [8 x i8] c"/disk@1\00", align 1
@.str.18 = private unnamed_addr constant [8 x i8] c"/disk@0\00", align 1
@__func__.IDE_DEVICE = private unnamed_addr constant [11 x i8] c"IDE_DEVICE\00", align 1

; Function Attrs: nounwind sspstrong uwtable
define internal ptr @IDE_DEVICE(ptr noundef %obj) #0 {
entry:
  %obj.addr = alloca ptr, align 8
  store ptr %obj, ptr %obj.addr, align 8
  %0 = load ptr, ptr %obj.addr, align 8
  %call = call ptr @object_dynamic_cast_assert(ptr noundef %0, ptr noundef @.str.9, ptr noundef @.str.8, i32 noundef 506, ptr noundef @__func__.IDE_DEVICE)
  ret ptr %call
}

; Function Attrs: nounwind sspstrong uwtable
define internal void @ide_dev_set_bootindex(ptr noundef %obj, ptr noundef %v, ptr noundef %name, ptr noundef %opaque, ptr noundef %errp) #0 {
entry:
  %obj.addr = alloca ptr, align 8
  %v.addr = alloca ptr, align 8
  %name.addr = alloca ptr, align 8
  %opaque.addr = alloca ptr, align 8
  %errp.addr = alloca ptr, align 8
  %d = alloca ptr, align 8
  %boot_index = alloca i32, align 4
  %local_err = alloca ptr, align 8
  store ptr %obj, ptr %obj.addr, align 8
  store ptr %v, ptr %v.addr, align 8
  store ptr %name, ptr %name.addr, align 8
  store ptr %opaque, ptr %opaque.addr, align 8
  store ptr %errp, ptr %errp.addr, align 8
  %0 = load ptr, ptr %obj.addr, align 8
  %call = call ptr @IDE_DEVICE(ptr noundef %0)
  store ptr %call, ptr %d, align 8
  store ptr null, ptr %local_err, align 8
  %1 = load ptr, ptr %v.addr, align 8
  %2 = load ptr, ptr %name.addr, align 8
  %3 = load ptr, ptr %errp.addr, align 8
  %call1 = call zeroext i1 @visit_type_int32(ptr noundef %1, ptr noundef %2, ptr noundef %boot_index, ptr noundef %3)
  br i1 %call1, label %if.end, label %if.then

if.then:                                          ; preds = %entry
  br label %return

if.end:                                           ; preds = %entry
  %4 = load i32, ptr %boot_index, align 4
  call void @check_boot_index(i32 noundef %4, ptr noundef %local_err)
  %5 = load ptr, ptr %local_err, align 8
  %tobool = icmp ne ptr %5, null
  br i1 %tobool, label %if.then2, label %if.end3

if.then2:                                         ; preds = %if.end
  br label %out

if.end3:                                          ; preds = %if.end
  %6 = load i32, ptr %boot_index, align 4
  %7 = load ptr, ptr %d, align 8
  %conf = getelementptr inbounds %struct.IDEDevice, ptr %7, i32 0, i32 2
  %bootindex = getelementptr inbounds %struct.BlockConf, ptr %conf, i32 0, i32 6
  store i32 %6, ptr %bootindex, align 4
  %8 = load ptr, ptr %d, align 8
  %unit = getelementptr inbounds %struct.IDEDevice, ptr %8, i32 0, i32 1
  %9 = load i32, ptr %unit, align 8
  %cmp = icmp ne i32 %9, -1
  br i1 %cmp, label %if.then4, label %if.end9

if.then4:                                         ; preds = %if.end3
  %10 = load ptr, ptr %d, align 8
  %conf5 = getelementptr inbounds %struct.IDEDevice, ptr %10, i32 0, i32 2
  %bootindex6 = getelementptr inbounds %struct.BlockConf, ptr %conf5, i32 0, i32 6
  %11 = load i32, ptr %bootindex6, align 4
  %12 = load ptr, ptr %d, align 8
  %qdev = getelementptr inbounds %struct.IDEDevice, ptr %12, i32 0, i32 0
  %13 = load ptr, ptr %d, align 8
  %unit7 = getelementptr inbounds %struct.IDEDevice, ptr %13, i32 0, i32 1
  %14 = load i32, ptr %unit7, align 8
  %tobool8 = icmp ne i32 %14, 0
  %cond = select i1 %tobool8, ptr @.str.17, ptr @.str.18
  call void @add_boot_device_path(i32 noundef %11, ptr noundef %qdev, ptr noundef %cond)
  br label %if.end9

if.end9:                                          ; preds = %if.then4, %if.end3
  br label %out

out:                                              ; preds = %if.end9, %if.then2
  %15 = load ptr, ptr %errp.addr, align 8
  %16 = load ptr, ptr %local_err, align 8
  call void @error_propagate(ptr noundef %15, ptr noundef %16)
  br label %return

return:                                           ; preds = %out, %if.then
  ret void
}