; Function Attrs: nounwind sspstrong uwtable
define internal void @ide_dev_set_bootindex(ptr noundef %obj, ptr noundef %v, ptr noundef %name, ptr readnone captures(none) %opaque, ptr noundef %errp) #0 {
entry:
  %boot_index = alloca i32, align 4
  %local_err = alloca ptr, align 8
  %call.i = tail call ptr @object_dynamic_cast_assert(ptr noundef %obj, ptr noundef nonnull @.str.9, ptr noundef nonnull @.str.8, i32 noundef 506, ptr noundef nonnull @__func__.IDE_DEVICE) #6
  store ptr null, ptr %local_err, align 8
  %call1 = call zeroext i1 @visit_type_int32(ptr noundef %v, ptr noundef %name, ptr noundef nonnull %boot_index, ptr noundef %errp) #6
  br i1 %call1, label %if.end, label %return

if.end:                                           ; preds = %entry
  %0 = load i32, ptr %boot_index, align 4
  call void @check_boot_index(i32 noundef %0, ptr noundef nonnull %local_err) #6
  %1 = load ptr, ptr %local_err, align 8
  %tobool.not = icmp eq ptr %1, null
  br i1 %tobool.not, label %if.end3, label %out

if.end3:                                          ; preds = %if.end
  %2 = load i32, ptr %boot_index, align 4
  %bootindex = getelementptr inbounds nuw i8, ptr %call.i, i64 196
  store i32 %2, ptr %bootindex, align 4
  %unit = getelementptr inbounds nuw i8, ptr %call.i, i64 160
  %3 = load i32, ptr %unit, align 8
  %cmp.not = icmp eq i32 %3, -1
  br i1 %cmp.not, label %out, label %if.then4

if.then4:                                         ; preds = %if.end3
  %tobool8.not = icmp eq i32 %3, 0
  %cond = select i1 %tobool8.not, ptr @.str.18, ptr @.str.17
  call void @add_boot_device_path(i32 noundef %2, ptr noundef nonnull %call.i, ptr noundef nonnull %cond) #6
  %.pre = load ptr, ptr %local_err, align 8
  br label %out

out:                                              ; preds = %if.end3, %if.then4, %if.end
  %4 = phi ptr [ null, %if.end3 ], [ %.pre, %if.then4 ], [ %1, %if.end ]
  call void @error_propagate(ptr noundef %errp, ptr noundef %4) #6
  br label %return

return:                                           ; preds = %entry, %out
  ret void
}